
LCD_LED.elf:     file format elf32-avr

Sections:
Idx Name          Size      VMA       LMA       File off  Algn
  0 .text         0000034e  00000000  00000000  00000074  2**1
                  CONTENTS, ALLOC, LOAD, READONLY, CODE
  1 .data         00000000  00800060  0000034e  000003c2  2**0
                  CONTENTS, ALLOC, LOAD, DATA
  2 .stab         000006cc  00000000  00000000  000003c4  2**2
                  CONTENTS, READONLY, DEBUGGING
  3 .stabstr      00000085  00000000  00000000  00000a90  2**0
                  CONTENTS, READONLY, DEBUGGING
  4 .debug_aranges 000000a0  00000000  00000000  00000b18  2**3
                  CONTENTS, READONLY, DEBUGGING
  5 .debug_info   00000395  00000000  00000000  00000bb8  2**0
                  CONTENTS, READONLY, DEBUGGING
  6 .debug_abbrev 000000ed  00000000  00000000  00000f4d  2**0
                  CONTENTS, READONLY, DEBUGGING
  7 .debug_line   0000028f  00000000  00000000  0000103a  2**0
                  CONTENTS, READONLY, DEBUGGING
  8 .debug_frame  00000074  00000000  00000000  000012cc  2**2
                  CONTENTS, READONLY, DEBUGGING
  9 .debug_str    000000b3  00000000  00000000  00001340  2**0
                  CONTENTS, READONLY, DEBUGGING
 10 .debug_loc    000001e4  00000000  00000000  000013f3  2**0
                  CONTENTS, READONLY, DEBUGGING

Disassembly of section .text:

00000000 <__vectors>:
   0:	0c 94 2a 00 	jmp	0x54	; 0x54 <__ctors_end>
   4:	0c 94 47 00 	jmp	0x8e	; 0x8e <__bad_interrupt>
   8:	0c 94 47 00 	jmp	0x8e	; 0x8e <__bad_interrupt>
   c:	0c 94 47 00 	jmp	0x8e	; 0x8e <__bad_interrupt>
  10:	0c 94 47 00 	jmp	0x8e	; 0x8e <__bad_interrupt>
  14:	0c 94 47 00 	jmp	0x8e	; 0x8e <__bad_interrupt>
  18:	0c 94 47 00 	jmp	0x8e	; 0x8e <__bad_interrupt>
  1c:	0c 94 47 00 	jmp	0x8e	; 0x8e <__bad_interrupt>
  20:	0c 94 47 00 	jmp	0x8e	; 0x8e <__bad_interrupt>
  24:	0c 94 47 00 	jmp	0x8e	; 0x8e <__bad_interrupt>
  28:	0c 94 47 00 	jmp	0x8e	; 0x8e <__bad_interrupt>
  2c:	0c 94 47 00 	jmp	0x8e	; 0x8e <__bad_interrupt>
  30:	0c 94 47 00 	jmp	0x8e	; 0x8e <__bad_interrupt>
  34:	0c 94 47 00 	jmp	0x8e	; 0x8e <__bad_interrupt>
  38:	0c 94 47 00 	jmp	0x8e	; 0x8e <__bad_interrupt>
  3c:	0c 94 47 00 	jmp	0x8e	; 0x8e <__bad_interrupt>
  40:	0c 94 47 00 	jmp	0x8e	; 0x8e <__bad_interrupt>
  44:	0c 94 47 00 	jmp	0x8e	; 0x8e <__bad_interrupt>
  48:	0c 94 47 00 	jmp	0x8e	; 0x8e <__bad_interrupt>
  4c:	0c 94 47 00 	jmp	0x8e	; 0x8e <__bad_interrupt>
  50:	0c 94 47 00 	jmp	0x8e	; 0x8e <__bad_interrupt>

00000054 <__ctors_end>:
  54:	11 24       	eor	r1, r1
  56:	1f be       	out	0x3f, r1	; 63
  58:	cf e5       	ldi	r28, 0x5F	; 95
  5a:	d8 e0       	ldi	r29, 0x08	; 8
  5c:	de bf       	out	0x3e, r29	; 62
  5e:	cd bf       	out	0x3d, r28	; 61

00000060 <__do_copy_data>:
  60:	10 e0       	ldi	r17, 0x00	; 0
  62:	a0 e6       	ldi	r26, 0x60	; 96
  64:	b0 e0       	ldi	r27, 0x00	; 0
  66:	ee e4       	ldi	r30, 0x4E	; 78
  68:	f3 e0       	ldi	r31, 0x03	; 3
  6a:	02 c0       	rjmp	.+4      	; 0x70 <__do_copy_data+0x10>
  6c:	05 90       	lpm	r0, Z+
  6e:	0d 92       	st	X+, r0
  70:	a0 36       	cpi	r26, 0x60	; 96
  72:	b1 07       	cpc	r27, r17
  74:	d9 f7       	brne	.-10     	; 0x6c <__do_copy_data+0xc>

00000076 <__do_clear_bss>:
  76:	10 e0       	ldi	r17, 0x00	; 0
  78:	a0 e6       	ldi	r26, 0x60	; 96
  7a:	b0 e0       	ldi	r27, 0x00	; 0
  7c:	01 c0       	rjmp	.+2      	; 0x80 <.do_clear_bss_start>

0000007e <.do_clear_bss_loop>:
  7e:	1d 92       	st	X+, r1

00000080 <.do_clear_bss_start>:
  80:	a0 36       	cpi	r26, 0x60	; 96
  82:	b1 07       	cpc	r27, r17
  84:	e1 f7       	brne	.-8      	; 0x7e <.do_clear_bss_loop>
  86:	0e 94 87 01 	call	0x30e	; 0x30e <main>
  8a:	0c 94 a5 01 	jmp	0x34a	; 0x34a <_exit>

0000008e <__bad_interrupt>:
  8e:	0c 94 00 00 	jmp	0	; 0x0 <__vectors>

00000092 <mydelay10ms>:
 * Created: 9/19/2016 10:16:19 PM
 *  Author: Mohamed Abo Arab
 */ 
  #include "LCD_Led.h"
  void mydelay10ms(unsigned long time)
  {
  92:	0f 93       	push	r16
  94:	1f 93       	push	r17
  96:	cf 93       	push	r28
  98:	df 93       	push	r29
  9a:	00 d0       	rcall	.+0      	; 0x9c <mydelay10ms+0xa>
  9c:	00 d0       	rcall	.+0      	; 0x9e <mydelay10ms+0xc>
  9e:	cd b7       	in	r28, 0x3d	; 61
  a0:	de b7       	in	r29, 0x3e	; 62
  a2:	ab 01       	movw	r20, r22
  a4:	bc 01       	movw	r22, r24
	  while(time>0)
  a6:	41 15       	cp	r20, r1
  a8:	51 05       	cpc	r21, r1
  aa:	61 05       	cpc	r22, r1
  ac:	71 05       	cpc	r23, r1
  ae:	51 f1       	breq	.+84     	; 0x104 <mydelay10ms+0x72>
	  {
		  volatile int long i=1500;
  b0:	0c ed       	ldi	r16, 0xDC	; 220
  b2:	15 e0       	ldi	r17, 0x05	; 5
  b4:	20 e0       	ldi	r18, 0x00	; 0
  b6:	30 e0       	ldi	r19, 0x00	; 0
  b8:	09 83       	std	Y+1, r16	; 0x01
  ba:	1a 83       	std	Y+2, r17	; 0x02
  bc:	2b 83       	std	Y+3, r18	; 0x03
  be:	3c 83       	std	Y+4, r19	; 0x04
		  while(i>0)
  c0:	89 81       	ldd	r24, Y+1	; 0x01
  c2:	9a 81       	ldd	r25, Y+2	; 0x02
  c4:	ab 81       	ldd	r26, Y+3	; 0x03
  c6:	bc 81       	ldd	r27, Y+4	; 0x04
  c8:	18 16       	cp	r1, r24
  ca:	19 06       	cpc	r1, r25
  cc:	1a 06       	cpc	r1, r26
  ce:	1b 06       	cpc	r1, r27
  d0:	a4 f4       	brge	.+40     	; 0xfa <mydelay10ms+0x68>
		  {
			  i--;
  d2:	89 81       	ldd	r24, Y+1	; 0x01
  d4:	9a 81       	ldd	r25, Y+2	; 0x02
  d6:	ab 81       	ldd	r26, Y+3	; 0x03
  d8:	bc 81       	ldd	r27, Y+4	; 0x04
  da:	01 97       	sbiw	r24, 0x01	; 1
  dc:	a1 09       	sbc	r26, r1
  de:	b1 09       	sbc	r27, r1
  e0:	89 83       	std	Y+1, r24	; 0x01
  e2:	9a 83       	std	Y+2, r25	; 0x02
  e4:	ab 83       	std	Y+3, r26	; 0x03
  e6:	bc 83       	std	Y+4, r27	; 0x04
  void mydelay10ms(unsigned long time)
  {
	  while(time>0)
	  {
		  volatile int long i=1500;
		  while(i>0)
  e8:	89 81       	ldd	r24, Y+1	; 0x01
  ea:	9a 81       	ldd	r25, Y+2	; 0x02
  ec:	ab 81       	ldd	r26, Y+3	; 0x03
  ee:	bc 81       	ldd	r27, Y+4	; 0x04
  f0:	18 16       	cp	r1, r24
  f2:	19 06       	cpc	r1, r25
  f4:	1a 06       	cpc	r1, r26
  f6:	1b 06       	cpc	r1, r27
  f8:	64 f3       	brlt	.-40     	; 0xd2 <mydelay10ms+0x40>
		  {
			  i--;
		  }
		  time--;
  fa:	41 50       	subi	r20, 0x01	; 1
  fc:	50 40       	sbci	r21, 0x00	; 0
  fe:	60 40       	sbci	r22, 0x00	; 0
 100:	70 40       	sbci	r23, 0x00	; 0
 *  Author: Mohamed Abo Arab
 */ 
  #include "LCD_Led.h"
  void mydelay10ms(unsigned long time)
  {
	  while(time>0)
 102:	d1 f6       	brne	.-76     	; 0xb8 <mydelay10ms+0x26>
		  {
			  i--;
		  }
		  time--;
	  }
  }
 104:	0f 90       	pop	r0
 106:	0f 90       	pop	r0
 108:	0f 90       	pop	r0
 10a:	0f 90       	pop	r0
 10c:	df 91       	pop	r29
 10e:	cf 91       	pop	r28
 110:	1f 91       	pop	r17
 112:	0f 91       	pop	r16
 114:	08 95       	ret

00000116 <Draw_char>:
  
  void Draw_char(unsigned char fram,unsigned char letter)
  {
	  if(fram==0)
 116:	88 23       	and	r24, r24
 118:	09 f0       	breq	.+2      	; 0x11c <Draw_char+0x6>
 11a:	73 c0       	rjmp	.+230    	; 0x202 <Draw_char+0xec>
	  {
		  switch(letter){
 11c:	63 34       	cpi	r22, 0x43	; 67
 11e:	a1 f1       	breq	.+104    	; 0x188 <Draw_char+0x72>
 120:	64 34       	cpi	r22, 0x44	; 68
 122:	30 f4       	brcc	.+12     	; 0x130 <Draw_char+0x1a>
 124:	61 34       	cpi	r22, 0x41	; 65
 126:	51 f0       	breq	.+20     	; 0x13c <Draw_char+0x26>
 128:	62 34       	cpi	r22, 0x42	; 66
 12a:	09 f0       	breq	.+2      	; 0x12e <Draw_char+0x18>
 12c:	66 c0       	rjmp	.+204    	; 0x1fa <Draw_char+0xe4>
 12e:	19 c0       	rjmp	.+50     	; 0x162 <Draw_char+0x4c>
 130:	64 34       	cpi	r22, 0x44	; 68
 132:	e9 f1       	breq	.+122    	; 0x1ae <Draw_char+0x98>
 134:	65 34       	cpi	r22, 0x45	; 69
 136:	09 f0       	breq	.+2      	; 0x13a <Draw_char+0x24>
 138:	60 c0       	rjmp	.+192    	; 0x1fa <Draw_char+0xe4>
 13a:	4c c0       	rjmp	.+152    	; 0x1d4 <Draw_char+0xbe>
			  case'A':
			  
			  myPORTA=0b01110010;
 13c:	82 e7       	ldi	r24, 0x72	; 114
 13e:	8b bb       	out	0x1b, r24	; 27
			  myPORTB=0b01010101;
 140:	85 e5       	ldi	r24, 0x55	; 85
 142:	88 bb       	out	0x18, r24	; 24
			  mydelay10ms(30);
 144:	6e e1       	ldi	r22, 0x1E	; 30
 146:	70 e0       	ldi	r23, 0x00	; 0
 148:	80 e0       	ldi	r24, 0x00	; 0
 14a:	90 e0       	ldi	r25, 0x00	; 0
 14c:	0e 94 49 00 	call	0x92	; 0x92 <mydelay10ms>
			  myPORTA=myPORTB=0x00;
 150:	18 ba       	out	0x18, r1	; 24
 152:	1b ba       	out	0x1b, r1	; 27
			  mydelay10ms(30);
 154:	6e e1       	ldi	r22, 0x1E	; 30
 156:	70 e0       	ldi	r23, 0x00	; 0
 158:	80 e0       	ldi	r24, 0x00	; 0
 15a:	90 e0       	ldi	r25, 0x00	; 0
 15c:	0e 94 49 00 	call	0x92	; 0x92 <mydelay10ms>
			  break;
 160:	08 95       	ret
			  
			  case'B':
			  
			  myPORTA=0b01100110;
 162:	86 e6       	ldi	r24, 0x66	; 102
 164:	8b bb       	out	0x1b, r24	; 27
			  myPORTB=0b00000110;
 166:	86 e0       	ldi	r24, 0x06	; 6
 168:	88 bb       	out	0x18, r24	; 24
			  mydelay10ms(30);
 16a:	6e e1       	ldi	r22, 0x1E	; 30
 16c:	70 e0       	ldi	r23, 0x00	; 0
 16e:	80 e0       	ldi	r24, 0x00	; 0
 170:	90 e0       	ldi	r25, 0x00	; 0
 172:	0e 94 49 00 	call	0x92	; 0x92 <mydelay10ms>
			  myPORTA=myPORTB=0x00;
 176:	18 ba       	out	0x18, r1	; 24
 178:	1b ba       	out	0x1b, r1	; 27
			  mydelay10ms(30);
 17a:	6e e1       	ldi	r22, 0x1E	; 30
 17c:	70 e0       	ldi	r23, 0x00	; 0
 17e:	80 e0       	ldi	r24, 0x00	; 0
 180:	90 e0       	ldi	r25, 0x00	; 0
 182:	0e 94 49 00 	call	0x92	; 0x92 <mydelay10ms>
			  break;
 186:	08 95       	ret
			  
			  case'C':
			  
			  
			  myPORTA=0b01000011;
 188:	83 e4       	ldi	r24, 0x43	; 67
 18a:	8b bb       	out	0x1b, r24	; 27
			  myPORTB=0b01110100;
 18c:	84 e7       	ldi	r24, 0x74	; 116
 18e:	88 bb       	out	0x18, r24	; 24
			  mydelay10ms(30);
 190:	6e e1       	ldi	r22, 0x1E	; 30
 192:	70 e0       	ldi	r23, 0x00	; 0
 194:	80 e0       	ldi	r24, 0x00	; 0
 196:	90 e0       	ldi	r25, 0x00	; 0
 198:	0e 94 49 00 	call	0x92	; 0x92 <mydelay10ms>
			  myPORTA=myPORTB=0x00;
 19c:	18 ba       	out	0x18, r1	; 24
 19e:	1b ba       	out	0x1b, r1	; 27
			  mydelay10ms(30);
 1a0:	6e e1       	ldi	r22, 0x1E	; 30
 1a2:	70 e0       	ldi	r23, 0x00	; 0
 1a4:	80 e0       	ldi	r24, 0x00	; 0
 1a6:	90 e0       	ldi	r25, 0x00	; 0
 1a8:	0e 94 49 00 	call	0x92	; 0x92 <mydelay10ms>
			  break;
 1ac:	08 95       	ret
			  
			  
			  case'D':
			  
			  myPORTA=0b01010110;
 1ae:	86 e5       	ldi	r24, 0x56	; 86
 1b0:	8b bb       	out	0x1b, r24	; 27
			  myPORTB=0b01100101;
 1b2:	85 e6       	ldi	r24, 0x65	; 101
 1b4:	88 bb       	out	0x18, r24	; 24
			  mydelay10ms(30);
 1b6:	6e e1       	ldi	r22, 0x1E	; 30
 1b8:	70 e0       	ldi	r23, 0x00	; 0
 1ba:	80 e0       	ldi	r24, 0x00	; 0
 1bc:	90 e0       	ldi	r25, 0x00	; 0
 1be:	0e 94 49 00 	call	0x92	; 0x92 <mydelay10ms>
			  myPORTA=myPORTB=0x00;
 1c2:	18 ba       	out	0x18, r1	; 24
 1c4:	1b ba       	out	0x1b, r1	; 27
			  mydelay10ms(30);
 1c6:	6e e1       	ldi	r22, 0x1E	; 30
 1c8:	70 e0       	ldi	r23, 0x00	; 0
 1ca:	80 e0       	ldi	r24, 0x00	; 0
 1cc:	90 e0       	ldi	r25, 0x00	; 0
 1ce:	0e 94 49 00 	call	0x92	; 0x92 <mydelay10ms>
			  break;
 1d2:	08 95       	ret
			  
			  
			  case'E':
			  
			  myPORTA=0b01110111;
 1d4:	87 e7       	ldi	r24, 0x77	; 119
 1d6:	8b bb       	out	0x1b, r24	; 27
			  myPORTB=0b00000111;
 1d8:	87 e0       	ldi	r24, 0x07	; 7
 1da:	88 bb       	out	0x18, r24	; 24
			  mydelay10ms(30);
 1dc:	6e e1       	ldi	r22, 0x1E	; 30
 1de:	70 e0       	ldi	r23, 0x00	; 0
 1e0:	80 e0       	ldi	r24, 0x00	; 0
 1e2:	90 e0       	ldi	r25, 0x00	; 0
 1e4:	0e 94 49 00 	call	0x92	; 0x92 <mydelay10ms>
			  myPORTA=myPORTB=0x00;
 1e8:	18 ba       	out	0x18, r1	; 24
 1ea:	1b ba       	out	0x1b, r1	; 27
			  mydelay10ms(30);
 1ec:	6e e1       	ldi	r22, 0x1E	; 30
 1ee:	70 e0       	ldi	r23, 0x00	; 0
 1f0:	80 e0       	ldi	r24, 0x00	; 0
 1f2:	90 e0       	ldi	r25, 0x00	; 0
 1f4:	0e 94 49 00 	call	0x92	; 0x92 <mydelay10ms>
			  break;
 1f8:	08 95       	ret
			  
			  default:
			  myPORTA=myPORTB=0xff;
 1fa:	8f ef       	ldi	r24, 0xFF	; 255
 1fc:	88 bb       	out	0x18, r24	; 24
 1fe:	8b bb       	out	0x1b, r24	; 27
			  break;
 200:	08 95       	ret
		  }
	  }
	  
	  else if(fram==1)
 202:	81 30       	cpi	r24, 0x01	; 1
 204:	09 f0       	breq	.+2      	; 0x208 <Draw_char+0xf2>
 206:	73 c0       	rjmp	.+230    	; 0x2ee <Draw_char+0x1d8>
	  {
		  switch(letter){
 208:	63 34       	cpi	r22, 0x43	; 67
 20a:	a1 f1       	breq	.+104    	; 0x274 <Draw_char+0x15e>
 20c:	64 34       	cpi	r22, 0x44	; 68
 20e:	30 f4       	brcc	.+12     	; 0x21c <Draw_char+0x106>
 210:	61 34       	cpi	r22, 0x41	; 65
 212:	51 f0       	breq	.+20     	; 0x228 <Draw_char+0x112>
 214:	62 34       	cpi	r22, 0x42	; 66
 216:	09 f0       	breq	.+2      	; 0x21a <Draw_char+0x104>
 218:	66 c0       	rjmp	.+204    	; 0x2e6 <Draw_char+0x1d0>
 21a:	19 c0       	rjmp	.+50     	; 0x24e <Draw_char+0x138>
 21c:	64 34       	cpi	r22, 0x44	; 68
 21e:	e9 f1       	breq	.+122    	; 0x29a <Draw_char+0x184>
 220:	65 34       	cpi	r22, 0x45	; 69
 222:	09 f0       	breq	.+2      	; 0x226 <Draw_char+0x110>
 224:	60 c0       	rjmp	.+192    	; 0x2e6 <Draw_char+0x1d0>
 226:	4c c0       	rjmp	.+152    	; 0x2c0 <Draw_char+0x1aa>
			  case'A':
			  
			  myPORTC=0b01110010;
 228:	82 e7       	ldi	r24, 0x72	; 114
 22a:	85 bb       	out	0x15, r24	; 21
			  myPORTD=0b01010101;
 22c:	85 e5       	ldi	r24, 0x55	; 85
 22e:	82 bb       	out	0x12, r24	; 18
			  mydelay10ms(30);
 230:	6e e1       	ldi	r22, 0x1E	; 30
 232:	70 e0       	ldi	r23, 0x00	; 0
 234:	80 e0       	ldi	r24, 0x00	; 0
 236:	90 e0       	ldi	r25, 0x00	; 0
 238:	0e 94 49 00 	call	0x92	; 0x92 <mydelay10ms>
			  myPORTC=myPORTD=0x00;
 23c:	12 ba       	out	0x12, r1	; 18
 23e:	15 ba       	out	0x15, r1	; 21
			  mydelay10ms(30);
 240:	6e e1       	ldi	r22, 0x1E	; 30
 242:	70 e0       	ldi	r23, 0x00	; 0
 244:	80 e0       	ldi	r24, 0x00	; 0
 246:	90 e0       	ldi	r25, 0x00	; 0
 248:	0e 94 49 00 	call	0x92	; 0x92 <mydelay10ms>
			  break;
 24c:	08 95       	ret
			  
			  case'B':
			  
			  myPORTC=0b01100110;
 24e:	86 e6       	ldi	r24, 0x66	; 102
 250:	85 bb       	out	0x15, r24	; 21
			  myPORTD=0b00000110;
 252:	86 e0       	ldi	r24, 0x06	; 6
 254:	82 bb       	out	0x12, r24	; 18
			  mydelay10ms(30);
 256:	6e e1       	ldi	r22, 0x1E	; 30
 258:	70 e0       	ldi	r23, 0x00	; 0
 25a:	80 e0       	ldi	r24, 0x00	; 0
 25c:	90 e0       	ldi	r25, 0x00	; 0
 25e:	0e 94 49 00 	call	0x92	; 0x92 <mydelay10ms>
			  myPORTC=myPORTD=0x00;
 262:	12 ba       	out	0x12, r1	; 18
 264:	15 ba       	out	0x15, r1	; 21
			  mydelay10ms(30);
 266:	6e e1       	ldi	r22, 0x1E	; 30
 268:	70 e0       	ldi	r23, 0x00	; 0
 26a:	80 e0       	ldi	r24, 0x00	; 0
 26c:	90 e0       	ldi	r25, 0x00	; 0
 26e:	0e 94 49 00 	call	0x92	; 0x92 <mydelay10ms>
			  break;
 272:	08 95       	ret
			  
			  case'C':
			  
			  
			  myPORTC=0b01000011;
 274:	83 e4       	ldi	r24, 0x43	; 67
 276:	85 bb       	out	0x15, r24	; 21
			  myPORTD=0b01110100;
 278:	84 e7       	ldi	r24, 0x74	; 116
 27a:	82 bb       	out	0x12, r24	; 18
			  mydelay10ms(30);
 27c:	6e e1       	ldi	r22, 0x1E	; 30
 27e:	70 e0       	ldi	r23, 0x00	; 0
 280:	80 e0       	ldi	r24, 0x00	; 0
 282:	90 e0       	ldi	r25, 0x00	; 0
 284:	0e 94 49 00 	call	0x92	; 0x92 <mydelay10ms>
			  myPORTC=myPORTD=0x00;
 288:	12 ba       	out	0x12, r1	; 18
 28a:	15 ba       	out	0x15, r1	; 21
			  mydelay10ms(30);
 28c:	6e e1       	ldi	r22, 0x1E	; 30
 28e:	70 e0       	ldi	r23, 0x00	; 0
 290:	80 e0       	ldi	r24, 0x00	; 0
 292:	90 e0       	ldi	r25, 0x00	; 0
 294:	0e 94 49 00 	call	0x92	; 0x92 <mydelay10ms>
			  break;
 298:	08 95       	ret
			  
			  
			  case'D':
			  
			  myPORTC=0b10100110;
 29a:	86 ea       	ldi	r24, 0xA6	; 166
 29c:	85 bb       	out	0x15, r24	; 21
			  myPORTD=0b01101010;
 29e:	8a e6       	ldi	r24, 0x6A	; 106
 2a0:	82 bb       	out	0x12, r24	; 18
			  mydelay10ms(30);
 2a2:	6e e1       	ldi	r22, 0x1E	; 30
 2a4:	70 e0       	ldi	r23, 0x00	; 0
 2a6:	80 e0       	ldi	r24, 0x00	; 0
 2a8:	90 e0       	ldi	r25, 0x00	; 0
 2aa:	0e 94 49 00 	call	0x92	; 0x92 <mydelay10ms>
			  myPORTC=myPORTD=0x00;
 2ae:	12 ba       	out	0x12, r1	; 18
 2b0:	15 ba       	out	0x15, r1	; 21
			  mydelay10ms(30);
 2b2:	6e e1       	ldi	r22, 0x1E	; 30
 2b4:	70 e0       	ldi	r23, 0x00	; 0
 2b6:	80 e0       	ldi	r24, 0x00	; 0
 2b8:	90 e0       	ldi	r25, 0x00	; 0
 2ba:	0e 94 49 00 	call	0x92	; 0x92 <mydelay10ms>
			  break;
 2be:	08 95       	ret
			  
			  
			  case'E':
			  
			  myPORTC=0b01110111;
 2c0:	87 e7       	ldi	r24, 0x77	; 119
 2c2:	85 bb       	out	0x15, r24	; 21
			  myPORTD=0b00000111;
 2c4:	87 e0       	ldi	r24, 0x07	; 7
 2c6:	82 bb       	out	0x12, r24	; 18
			  mydelay10ms(30);
 2c8:	6e e1       	ldi	r22, 0x1E	; 30
 2ca:	70 e0       	ldi	r23, 0x00	; 0
 2cc:	80 e0       	ldi	r24, 0x00	; 0
 2ce:	90 e0       	ldi	r25, 0x00	; 0
 2d0:	0e 94 49 00 	call	0x92	; 0x92 <mydelay10ms>
			  myPORTC=myPORTD=0x00;
 2d4:	12 ba       	out	0x12, r1	; 18
 2d6:	15 ba       	out	0x15, r1	; 21
			  mydelay10ms(30);
 2d8:	6e e1       	ldi	r22, 0x1E	; 30
 2da:	70 e0       	ldi	r23, 0x00	; 0
 2dc:	80 e0       	ldi	r24, 0x00	; 0
 2de:	90 e0       	ldi	r25, 0x00	; 0
 2e0:	0e 94 49 00 	call	0x92	; 0x92 <mydelay10ms>
			  break;
 2e4:	08 95       	ret
			  
			  default:
			  myPORTC=myPORTD=0xff;
 2e6:	8f ef       	ldi	r24, 0xFF	; 255
 2e8:	82 bb       	out	0x12, r24	; 18
 2ea:	85 bb       	out	0x15, r24	; 21
			  break;
 2ec:	08 95       	ret
		  }
	  }
	  else
	  {
		  myPORTA=myPORTB=myPORTC=myPORTD=0xff;
 2ee:	8f ef       	ldi	r24, 0xFF	; 255
 2f0:	82 bb       	out	0x12, r24	; 18
 2f2:	85 bb       	out	0x15, r24	; 21
 2f4:	88 bb       	out	0x18, r24	; 24
 2f6:	8b bb       	out	0x1b, r24	; 27
		  mydelay10ms(30);
 2f8:	6e e1       	ldi	r22, 0x1E	; 30
 2fa:	70 e0       	ldi	r23, 0x00	; 0
 2fc:	80 e0       	ldi	r24, 0x00	; 0
 2fe:	90 e0       	ldi	r25, 0x00	; 0
 300:	0e 94 49 00 	call	0x92	; 0x92 <mydelay10ms>
		  myPORTA=myPORTB=myPORTC=myPORTD=0x00;
 304:	12 ba       	out	0x12, r1	; 18
 306:	15 ba       	out	0x15, r1	; 21
 308:	18 ba       	out	0x18, r1	; 24
 30a:	1b ba       	out	0x1b, r1	; 27
 30c:	08 95       	ret

0000030e <main>:

#include "LCD_Led.h"
#define F_CPU 1000000UL //1MHZ
int main(void)
{
	myDDRA=0XFF;
 30e:	8f ef       	ldi	r24, 0xFF	; 255
 310:	8a bb       	out	0x1a, r24	; 26
	myDDRB=0xff;
 312:	87 bb       	out	0x17, r24	; 23
	myDDRC=0xff;
 314:	84 bb       	out	0x14, r24	; 20
	myDDRD=0xff;
 316:	81 bb       	out	0x11, r24	; 17
	
    while(1)
    {
		
		Draw_char(0,'A');
 318:	80 e0       	ldi	r24, 0x00	; 0
 31a:	61 e4       	ldi	r22, 0x41	; 65
 31c:	0e 94 8b 00 	call	0x116	; 0x116 <Draw_char>
		Draw_char(1,'B');
 320:	81 e0       	ldi	r24, 0x01	; 1
 322:	62 e4       	ldi	r22, 0x42	; 66
 324:	0e 94 8b 00 	call	0x116	; 0x116 <Draw_char>
		Draw_char(0,'C');
 328:	80 e0       	ldi	r24, 0x00	; 0
 32a:	63 e4       	ldi	r22, 0x43	; 67
 32c:	0e 94 8b 00 	call	0x116	; 0x116 <Draw_char>
		Draw_char(1,'D');
 330:	81 e0       	ldi	r24, 0x01	; 1
 332:	64 e4       	ldi	r22, 0x44	; 68
 334:	0e 94 8b 00 	call	0x116	; 0x116 <Draw_char>
		Draw_char(0,'E');
 338:	80 e0       	ldi	r24, 0x00	; 0
 33a:	65 e4       	ldi	r22, 0x45	; 69
 33c:	0e 94 8b 00 	call	0x116	; 0x116 <Draw_char>
		Draw_char(3,'A');
 340:	83 e0       	ldi	r24, 0x03	; 3
 342:	61 e4       	ldi	r22, 0x41	; 65
 344:	0e 94 8b 00 	call	0x116	; 0x116 <Draw_char>
 348:	e7 cf       	rjmp	.-50     	; 0x318 <main+0xa>

0000034a <_exit>:
 34a:	f8 94       	cli

0000034c <__stop_program>:
 34c:	ff cf       	rjmp	.-2      	; 0x34c <__stop_program>
